target datalayout = "e-m:e-p270:32:32-p271:32:32-p272:64:64-i64:64-i128:128-f80:128-n8:16:32:64-S128"
target triple = "x86_64-pc-linux-gnu"

%"class.nlsat::evaluator" = type { ptr }
%"class.nlsat::atom" = type { i32, i32, i32, i32 }

; Function Attrs: inlinehint mustprogress nounwind uwtable
define linkonce_odr hidden noundef ptr @_ZN5nlsat12to_root_atomEPNS_4atomE(ptr noundef %0) #8 comdat {
  %2 = alloca ptr, align 8
  store ptr %0, ptr %2, align 8, !tbaa !56
  %3 = load ptr, ptr %2, align 8, !tbaa !56
  ret ptr %3
}

; Function Attrs: inlinehint mustprogress nounwind uwtable
define linkonce_odr hidden noundef ptr @_ZN5nlsat12to_ineq_atomEPNS_4atomE(ptr noundef %0) #8 comdat {
  %2 = alloca ptr, align 8
  store ptr %0, ptr %2, align 8, !tbaa !56
  %3 = load ptr, ptr %2, align 8, !tbaa !56
  ret ptr %3
}

; Function Attrs: mustprogress nounwind uwtable
define linkonce_odr hidden noundef zeroext i1 @_ZNK5nlsat4atom12is_ineq_atomEv(ptr noundef nonnull align 4 dereferenceable(16) %0) #4 comdat align 2 {
  %2 = alloca ptr, align 8
  store ptr %0, ptr %2, align 8, !tbaa !56
  %3 = load ptr, ptr %2, align 8
  %4 = getelementptr inbounds nuw %"class.nlsat::atom", ptr %3, i32 0, i32 0
  %5 = load i32, ptr %4, align 4, !tbaa !97
  %6 = icmp sle i32 %5, 2
  ret i1 %6
}

; Function Attrs: mustprogress uwtable
define linkonce_odr hidden noundef zeroext i1 @_ZN5nlsat9evaluator3imp4evalEPNS_4atomEb(ptr noundef nonnull align 8 dereferenceable(192) %0, ptr noundef %1, i1 noundef zeroext %2) #6 comdat align 2 {
  %4 = alloca ptr, align 8
  %5 = alloca ptr, align 8
  %6 = alloca i8, align 1
  store ptr %0, ptr %4, align 8, !tbaa !29
  store ptr %1, ptr %5, align 8, !tbaa !56
  %7 = zext i1 %2 to i8
  store i8 %7, ptr %6, align 1, !tbaa !10
  %8 = load ptr, ptr %4, align 8
  %9 = load ptr, ptr %5, align 8, !tbaa !56
  %10 = call noundef zeroext i1 @_ZNK5nlsat4atom12is_ineq_atomEv(ptr noundef nonnull align 4 dereferenceable(16) %9)
  br i1 %10, label %11, label %17

11:                                               ; preds = %3
  %12 = load ptr, ptr %5, align 8, !tbaa !56
  %13 = call noundef ptr @_ZN5nlsat12to_ineq_atomEPNS_4atomE(ptr noundef %12)
  %14 = load i8, ptr %6, align 1, !tbaa !10, !range !12, !noundef !13
  %15 = trunc i8 %14 to i1
  %16 = call noundef zeroext i1 @_ZN5nlsat9evaluator3imp9eval_ineqEPNS_9ineq_atomEb(ptr noundef nonnull align 8 dereferenceable(192) %8, ptr noundef %13, i1 noundef zeroext %15)
  br label %23

17:                                               ; preds = %3
  %18 = load ptr, ptr %5, align 8, !tbaa !56
  %19 = call noundef ptr @_ZN5nlsat12to_root_atomEPNS_4atomE(ptr noundef %18)
  %20 = load i8, ptr %6, align 1, !tbaa !10, !range !12, !noundef !13
  %21 = trunc i8 %20 to i1
  %22 = call noundef zeroext i1 @_ZN5nlsat9evaluator3imp9eval_rootEPNS_9root_atomEb(ptr noundef nonnull align 8 dereferenceable(192) %8, ptr noundef %19, i1 noundef zeroext %21)
  br label %23

23:                                               ; preds = %17, %11
  %24 = phi i1 [ %16, %11 ], [ %22, %17 ]
  ret i1 %24
}

; Function Attrs: mustprogress uwtable
define hidden noundef zeroext i1 @_ZN5nlsat9evaluator4evalEPNS_4atomEb(ptr noundef nonnull align 8 dereferenceable(8) %0, ptr noundef %1, i1 noundef zeroext %2) #6 align 2 {
  %4 = alloca ptr, align 8
  %5 = alloca ptr, align 8
  %6 = alloca i8, align 1
  store ptr %0, ptr %4, align 8, !tbaa !16
  store ptr %1, ptr %5, align 8, !tbaa !56
  %7 = zext i1 %2 to i8
  store i8 %7, ptr %6, align 1, !tbaa !10
  %8 = load ptr, ptr %4, align 8
  %9 = getelementptr inbounds nuw %"class.nlsat::evaluator", ptr %8, i32 0, i32 0
  %10 = load ptr, ptr %9, align 8, !tbaa !26
  %11 = load ptr, ptr %5, align 8, !tbaa !56
  %12 = load i8, ptr %6, align 1, !tbaa !10, !range !12, !noundef !13
  %13 = trunc i8 %12 to i1
  %14 = call noundef zeroext i1 @_ZN5nlsat9evaluator3imp4evalEPNS_4atomEb(ptr noundef nonnull align 8 dereferenceable(192) %10, ptr noundef %11, i1 noundef zeroext %13)
  ret i1 %14
}