; Function Attrs: mustprogress uwtable
define hidden noundef zeroext i1 @_ZN5nlsat9evaluator4evalEPNS_4atomEb(ptr noundef nonnull readonly align 8 captures(none) dereferenceable(8) %0, ptr noundef %1, i1 noundef zeroext %2) local_unnamed_addr #4 align 2 {
  %4 = load ptr, ptr %0, align 8, !tbaa !42
  %5 = load i32, ptr %1, align 4, !tbaa !45
  %6 = icmp slt i32 %5, 3
  br i1 %6, label %7, label %9

7:                                                ; preds = %3
  %8 = tail call noundef zeroext i1 @_ZN5nlsat9evaluator3imp9eval_ineqEPNS_9ineq_atomEb(ptr noundef nonnull align 8 dereferenceable(192) %4, ptr noundef nonnull %1, i1 noundef zeroext %2)
  br label %_ZN5nlsat9evaluator3imp4evalEPNS_4atomEb.exit

9:                                                ; preds = %3
  %10 = tail call noundef zeroext i1 @_ZN5nlsat9evaluator3imp9eval_rootEPNS_9root_atomEb(ptr noundef nonnull align 8 dereferenceable(192) %4, ptr noundef nonnull %1, i1 noundef zeroext %2)
  br label %_ZN5nlsat9evaluator3imp4evalEPNS_4atomEb.exit

_ZN5nlsat9evaluator3imp4evalEPNS_4atomEb.exit:    ; preds = %7, %9
  %11 = phi i1 [ %8, %7 ], [ %10, %9 ]
  ret i1 %11
}